; Function Attrs: null_pointer_is_valid sspstrong uwtable
define internal i32 @dissect_rpkirtr(ptr noundef %0, ptr noundef %1, ptr noundef %2, ptr noundef %3) #0 {
  %5 = getelementptr inbounds nuw i8, ptr %1, i64 8
  %6 = load ptr, ptr %5, align 8
  tail call void @col_set_str(ptr noundef %6, i32 noundef 35, ptr noundef nonnull @.str.109)
  %7 = load ptr, ptr %5, align 8
  tail call void @col_clear(ptr noundef %7, i32 noundef 25)
  tail call void @tcp_dissect_pdus(ptr noundef %0, ptr noundef %1, ptr noundef %2, i1 noundef zeroext true, i32 noundef 8, ptr noundef nonnull @get_rpkirtr_pdu_len, ptr noundef nonnull @dissect_rpkirtr_pdu, ptr noundef %3)
  %8 = tail call i32 @tvb_reported_length(ptr noundef %0)
  ret i32 %8
}